; Function Attrs: nounwind uwtable
define void @Abc_SclUpsizeRemoveDangling(ptr noundef captures(none) %0, ptr noundef readonly captures(none) %1) local_unnamed_addr #0 {
  %3 = getelementptr inbounds nuw i8, ptr %1, i64 32
  %4 = load ptr, ptr %3, align 8, !tbaa !34
  %5 = getelementptr i8, ptr %4, i64 4
  %.val1423 = load i32, ptr %5, align 4, !tbaa !42
  %6 = icmp sgt i32 %.val1423, 0
  br i1 %6, label %.lr.ph, label %.critedge

.lr.ph:                                           ; preds = %2
  %7 = getelementptr inbounds nuw i8, ptr %0, i64 236
  br label %8

8:                                                ; preds = %.lr.ph, %43
  %9 = phi ptr [ %4, %.lr.ph ], [ %44, %43 ]
  %indvars.iv = phi i64 [ 0, %.lr.ph ], [ %indvars.iv.next, %43 ]
  %10 = getelementptr i8, ptr %9, i64 8
  %.val15.val = load ptr, ptr %10, align 8, !tbaa !35
  %11 = getelementptr inbounds nuw ptr, ptr %.val15.val, i64 %indvars.iv
  %12 = load ptr, ptr %11, align 8, !tbaa !37
  %13 = icmp eq ptr %12, null
  br i1 %13, label %43, label %14

14:                                               ; preds = %8
  %15 = getelementptr i8, ptr %12, i64 20
  %.val16 = load i32, ptr %15, align 4
  %16 = and i32 %.val16, 15
  %.not = icmp eq i32 %16, 7
  br i1 %.not, label %17, label %43

17:                                               ; preds = %14
  %18 = load ptr, ptr %12, align 8, !tbaa !3
  %19 = getelementptr i8, ptr %18, i64 4
  %.val6.i = load i32, ptr %19, align 4, !tbaa !152
  %.not.i.not = icmp eq i32 %.val6.i, 4
  br i1 %.not.i.not, label %20, label %Abc_ObjIsBarBuf.exit.thread

20:                                               ; preds = %17
  %21 = getelementptr i8, ptr %12, i64 28
  %.val.i = load i32, ptr %21, align 4, !tbaa !28
  %22 = icmp eq i32 %.val.i, 1
  br i1 %22, label %Abc_ObjIsBarBuf.exit, label %Abc_ObjIsBarBuf.exit.thread

Abc_ObjIsBarBuf.exit:                             ; preds = %20
  %23 = getelementptr inbounds nuw i8, ptr %12, i64 56
  %24 = load ptr, ptr %23, align 8, !tbaa !153
  %.not22 = icmp eq ptr %24, null
  br i1 %.not22, label %43, label %Abc_ObjIsBarBuf.exit.thread

Abc_ObjIsBarBuf.exit.thread:                      ; preds = %17, %20, %Abc_ObjIsBarBuf.exit
  %25 = getelementptr i8, ptr %12, i64 44
  %.val = load i32, ptr %25, align 4, !tbaa !32
  %26 = icmp eq i32 %.val, 0
  br i1 %26, label %Abc_SclObjCell.exit, label %43

Abc_SclObjCell.exit:                              ; preds = %Abc_ObjIsBarBuf.exit.thread
  %27 = getelementptr i8, ptr %12, i64 16
  %.val18 = load i32, ptr %27, align 8, !tbaa !13
  %28 = getelementptr i8, ptr %18, i64 376
  %.val.val.i = load ptr, ptr %28, align 8, !tbaa !86
  %29 = getelementptr i8, ptr %.val.val.i, i64 8
  %.val.val.val.i = load ptr, ptr %29, align 8, !tbaa !30
  %30 = sext i32 %.val18 to i64
  %31 = getelementptr inbounds i32, ptr %.val.val.val.i, i64 %30
  %32 = load i32, ptr %31, align 4, !tbaa !31
  %33 = icmp ne i32 %32, -1
  tail call void @llvm.assume(i1 %33)
  %34 = getelementptr i8, ptr %18, i64 368
  %.val4.val.i = load ptr, ptr %34, align 8, !tbaa !87
  %35 = getelementptr i8, ptr %.val4.val.i, i64 104
  %.val5.i19 = load ptr, ptr %35, align 8, !tbaa !35
  %36 = sext i32 %32 to i64
  %37 = getelementptr inbounds ptr, ptr %.val5.i19, i64 %36
  %38 = load ptr, ptr %37, align 8, !tbaa !37
  %39 = getelementptr inbounds nuw i8, ptr %38, i64 24
  %40 = load float, ptr %39, align 8, !tbaa !124
  %41 = load float, ptr %7, align 4, !tbaa !125
  %42 = fsub float %41, %40
  store float %42, ptr %7, align 4, !tbaa !125
  tail call void @Abc_NtkDeleteObj_rec(ptr noundef nonnull %12, i32 noundef 1) #27
  %.pre = load ptr, ptr %3, align 8, !tbaa !34
  br label %43

43:                                               ; preds = %Abc_ObjIsBarBuf.exit, %14, %8, %Abc_SclObjCell.exit, %Abc_ObjIsBarBuf.exit.thread
  %44 = phi ptr [ %9, %Abc_ObjIsBarBuf.exit ], [ %9, %14 ], [ %9, %8 ], [ %.pre, %Abc_SclObjCell.exit ], [ %9, %Abc_ObjIsBarBuf.exit.thread ]
  %indvars.iv.next = add nuw nsw i64 %indvars.iv, 1
  %45 = getelementptr i8, ptr %44, i64 4
  %.val14 = load i32, ptr %45, align 4, !tbaa !42
  %46 = sext i32 %.val14 to i64
  %47 = icmp slt i64 %indvars.iv.next, %46
  br i1 %47, label %8, label %.critedge, !llvm.loop !154

.critedge:                                        ; preds = %43, %2
  ret void
}